target datalayout = "e-m:e-p270:32:32-p271:32:32-p272:64:64-i64:64-i128:128-f80:128-n8:16:32:64-S128"
target triple = "x86_64-pc-linux-gnu"

%struct.persist_msg_t = type { ptr, ptr, i16 }
%struct.dbd_list_msg_t = type { ptr, i32 }
%struct.persist_rc_msg_t = type { ptr, i16, i32, i16 }
%struct.dbd_cond_msg_t = type { ptr }

@.str.7 = private unnamed_addr constant [3 x i8] c"%s\00", align 1
@.str.8 = private unnamed_addr constant [35 x i8] c"response type not DBD_GOT_LIST: %u\00", align 1
@.str.22 = private unnamed_addr constant [29 x i8] c"DBD_REMOVE_USERS failure: %m\00", align 1

; Function Attrs: nounwind uwtable
define dso_local ptr @acct_storage_p_remove_users(ptr noundef %0, i32 noundef %1, ptr noundef %2) #0 {
  %4 = alloca ptr, align 8
  %5 = alloca i32, align 4
  %6 = alloca ptr, align 8
  %7 = alloca %struct.persist_msg_t, align 8
  %8 = alloca %struct.dbd_cond_msg_t, align 8
  %9 = alloca i32, align 4
  %10 = alloca %struct.persist_msg_t, align 8
  %11 = alloca ptr, align 8
  %12 = alloca ptr, align 8
  %13 = alloca ptr, align 8
  store ptr %0, ptr %4, align 8
  store i32 %1, ptr %5, align 4
  store ptr %2, ptr %6, align 8
  call void @llvm.lifetime.start.p0(i64 24, ptr %7) #9
  call void @llvm.memset.p0.i64(ptr align 8 %7, i8 0, i64 24, i1 false)
  call void @llvm.lifetime.start.p0(i64 8, ptr %8) #9
  call void @llvm.lifetime.start.p0(i64 4, ptr %9) #9
  call void @llvm.lifetime.start.p0(i64 24, ptr %10) #9
  call void @llvm.memset.p0.i64(ptr align 8 %10, i8 0, i64 24, i1 false)
  call void @llvm.lifetime.start.p0(i64 8, ptr %11) #9
  call void @llvm.lifetime.start.p0(i64 8, ptr %12) #9
  store ptr null, ptr %12, align 8
  call void @llvm.memset.p0.i64(ptr align 8 %8, i8 0, i64 8, i1 false)
  %14 = load ptr, ptr %6, align 8
  %15 = getelementptr inbounds nuw %struct.dbd_cond_msg_t, ptr %8, i32 0, i32 0
  store ptr %14, ptr %15, align 8
  %16 = getelementptr inbounds nuw %struct.persist_msg_t, ptr %7, i32 0, i32 2
  store i16 1439, ptr %16, align 8
  %17 = load ptr, ptr %4, align 8
  %18 = getelementptr inbounds nuw %struct.persist_msg_t, ptr %7, i32 0, i32 0
  store ptr %17, ptr %18, align 8
  %19 = getelementptr inbounds nuw %struct.persist_msg_t, ptr %7, i32 0, i32 1
  store ptr %8, ptr %19, align 8
  %20 = call i32 @dbd_conn_send_recv(i16 noundef zeroext 11008, ptr noundef %7, ptr noundef %10)
  store i32 %20, ptr %9, align 4
  %21 = load i32, ptr %9, align 4
  %22 = icmp ne i32 %21, 0
  br i1 %22, label %23, label %25

23:                                               ; preds = %3
  %24 = call i32 (ptr, ...) @slurm_error(ptr noundef @.str.22)
  br label %84

25:                                               ; preds = %3
  %26 = getelementptr inbounds nuw %struct.persist_msg_t, ptr %10, i32 0, i32 2
  %27 = load i16, ptr %26, align 8
  %28 = zext i16 %27 to i32
  %29 = icmp eq i32 %28, 1433
  br i1 %29, label %30, label %58

30:                                               ; preds = %25
  call void @llvm.lifetime.start.p0(i64 8, ptr %13) #9
  %31 = getelementptr inbounds nuw %struct.persist_msg_t, ptr %10, i32 0, i32 1
  %32 = load ptr, ptr %31, align 8
  store ptr %32, ptr %13, align 8
  %33 = load ptr, ptr %13, align 8
  %34 = getelementptr inbounds nuw %struct.persist_rc_msg_t, ptr %33, i32 0, i32 2
  %35 = load i32, ptr %34, align 4
  %36 = icmp eq i32 %35, 0
  br i1 %36, label %37, label %42

37:                                               ; preds = %30
  %38 = load ptr, ptr %13, align 8
  %39 = getelementptr inbounds nuw %struct.persist_rc_msg_t, ptr %38, i32 0, i32 0
  %40 = load ptr, ptr %39, align 8
  call void (i32, ptr, ...) @slurm_log_var(i32 noundef 3, ptr noundef @.str.7, ptr noundef %40)
  %41 = call ptr @slurm_list_create(ptr noundef null)
  store ptr %41, ptr %12, align 8
  br label %56

42:                                               ; preds = %30
  %43 = load ptr, ptr %13, align 8
  %44 = getelementptr inbounds nuw %struct.persist_rc_msg_t, ptr %43, i32 0, i32 2
  %45 = load i32, ptr %44, align 4
  %46 = call ptr @__errno_location() #10
  store i32 %45, ptr %46, align 4
  %47 = call ptr @__errno_location() #10
  %48 = load i32, ptr %47, align 4
  %49 = icmp ne i32 %48, 1900
  br i1 %49, label %50, label %55

50:                                               ; preds = %42
  %51 = load ptr, ptr %13, align 8
  %52 = getelementptr inbounds nuw %struct.persist_rc_msg_t, ptr %51, i32 0, i32 0
  %53 = load ptr, ptr %52, align 8
  %54 = call i32 (ptr, ...) @slurm_error(ptr noundef @.str.7, ptr noundef %53)
  br label %55

55:                                               ; preds = %50, %42
  br label %56

56:                                               ; preds = %55, %37
  %57 = load ptr, ptr %13, align 8
  call void @slurm_persist_free_rc_msg(ptr noundef %57)
  call void @llvm.lifetime.end.p0(i64 8, ptr %13) #9
  br label %83

58:                                               ; preds = %25
  %59 = getelementptr inbounds nuw %struct.persist_msg_t, ptr %10, i32 0, i32 2
  %60 = load i16, ptr %59, align 8
  %61 = zext i16 %60 to i32
  %62 = icmp ne i32 %61, 1422
  br i1 %62, label %63, label %68

63:                                               ; preds = %58
  %64 = getelementptr inbounds nuw %struct.persist_msg_t, ptr %10, i32 0, i32 2
  %65 = load i16, ptr %64, align 8
  %66 = zext i16 %65 to i32
  %67 = call i32 (ptr, ...) @slurm_error(ptr noundef @.str.8, i32 noundef %66)
  br label %82

68:                                               ; preds = %58
  %69 = getelementptr inbounds nuw %struct.persist_msg_t, ptr %10, i32 0, i32 1
  %70 = load ptr, ptr %69, align 8
  store ptr %70, ptr %11, align 8
  %71 = load ptr, ptr %11, align 8
  %72 = getelementptr inbounds nuw %struct.dbd_list_msg_t, ptr %71, i32 0, i32 0
  %73 = load ptr, ptr %72, align 8
  store ptr %73, ptr %12, align 8
  %74 = load ptr, ptr %11, align 8
  %75 = getelementptr inbounds nuw %struct.dbd_list_msg_t, ptr %74, i32 0, i32 0
  store ptr null, ptr %75, align 8
  %76 = load ptr, ptr %11, align 8
  %77 = getelementptr inbounds nuw %struct.dbd_list_msg_t, ptr %76, i32 0, i32 1
  %78 = load i32, ptr %77, align 8
  store i32 %78, ptr %9, align 4
  %79 = load ptr, ptr %11, align 8
  call void @slurm_slurmdbd_free_list_msg(ptr noundef %79)
  %80 = load i32, ptr %9, align 4
  %81 = call ptr @__errno_location() #10
  store i32 %80, ptr %81, align 4
  br label %82

82:                                               ; preds = %68, %63
  br label %83

83:                                               ; preds = %82, %56
  br label %84

84:                                               ; preds = %83, %23
  %85 = load ptr, ptr %12, align 8
  call void @llvm.lifetime.end.p0(i64 8, ptr %12) #9
  call void @llvm.lifetime.end.p0(i64 8, ptr %11) #9
  call void @llvm.lifetime.end.p0(i64 24, ptr %10) #9
  call void @llvm.lifetime.end.p0(i64 4, ptr %9) #9
  call void @llvm.lifetime.end.p0(i64 8, ptr %8) #9
  call void @llvm.lifetime.end.p0(i64 24, ptr %7) #9
  ret ptr %85
}